target datalayout = "e-m:e-p270:32:32-p271:32:32-p272:64:64-i64:64-i128:128-f80:128-n8:16:32:64-S128"
target triple = "x86_64-pc-linux-gnu"

%struct.Dtstat_t = type { i32, i32, i64, i64, ptr }
%struct.dtlink_s_ = type { ptr, %union.anon.0 }
%union.anon.0 = type { ptr }

; Function Attrs: nounwind uwtable
define internal void @dttstat(ptr noundef %0, ptr noundef %1, i64 noundef %2, ptr noundef %3) #0 {
  %5 = alloca ptr, align 8
  %6 = alloca ptr, align 8
  %7 = alloca i64, align 8
  %8 = alloca ptr, align 8
  store ptr %0, ptr %5, align 8, !tbaa !8
  store ptr %1, ptr %6, align 8, !tbaa !33
  store i64 %2, ptr %7, align 8, !tbaa !24
  store ptr %3, ptr %8, align 8, !tbaa !25
  %9 = load ptr, ptr %6, align 8, !tbaa !33
  %10 = getelementptr inbounds nuw %struct.dtlink_s_, ptr %9, i32 0, i32 1
  %11 = load ptr, ptr %10, align 8, !tbaa !32
  %12 = icmp ne ptr %11, null
  br i1 %12, label %13, label %21

13:                                               ; preds = %4
  %14 = load ptr, ptr %5, align 8, !tbaa !8
  %15 = load ptr, ptr %6, align 8, !tbaa !33
  %16 = getelementptr inbounds nuw %struct.dtlink_s_, ptr %15, i32 0, i32 1
  %17 = load ptr, ptr %16, align 8, !tbaa !32
  %18 = load i64, ptr %7, align 8, !tbaa !24
  %19 = add i64 %18, 1
  %20 = load ptr, ptr %8, align 8, !tbaa !25
  call void @dttstat(ptr noundef %14, ptr noundef %17, i64 noundef %19, ptr noundef %20)
  br label %21

21:                                               ; preds = %13, %4
  %22 = load ptr, ptr %6, align 8, !tbaa !33
  %23 = getelementptr inbounds nuw %struct.dtlink_s_, ptr %22, i32 0, i32 0
  %24 = load ptr, ptr %23, align 8, !tbaa !34
  %25 = icmp ne ptr %24, null
  br i1 %25, label %26, label %34

26:                                               ; preds = %21
  %27 = load ptr, ptr %5, align 8, !tbaa !8
  %28 = load ptr, ptr %6, align 8, !tbaa !33
  %29 = getelementptr inbounds nuw %struct.dtlink_s_, ptr %28, i32 0, i32 0
  %30 = load ptr, ptr %29, align 8, !tbaa !34
  %31 = load i64, ptr %7, align 8, !tbaa !24
  %32 = add i64 %31, 1
  %33 = load ptr, ptr %8, align 8, !tbaa !25
  call void @dttstat(ptr noundef %27, ptr noundef %30, i64 noundef %32, ptr noundef %33)
  br label %34

34:                                               ; preds = %26, %21
  %35 = load i64, ptr %7, align 8, !tbaa !24
  %36 = load ptr, ptr %5, align 8, !tbaa !8
  %37 = getelementptr inbounds nuw %struct.Dtstat_t, ptr %36, i32 0, i32 2
  %38 = load i64, ptr %37, align 8, !tbaa !20
  %39 = icmp ugt i64 %35, %38
  br i1 %39, label %40, label %44

40:                                               ; preds = %34
  %41 = load i64, ptr %7, align 8, !tbaa !24
  %42 = load ptr, ptr %5, align 8, !tbaa !8
  %43 = getelementptr inbounds nuw %struct.Dtstat_t, ptr %42, i32 0, i32 2
  store i64 %41, ptr %43, align 8, !tbaa !20
  br label %44

44:                                               ; preds = %40, %34
  %45 = load ptr, ptr %8, align 8, !tbaa !25
  %46 = icmp ne ptr %45, null
  br i1 %46, label %47, label %53

47:                                               ; preds = %44
  %48 = load ptr, ptr %8, align 8, !tbaa !25
  %49 = load i64, ptr %7, align 8, !tbaa !24
  %50 = getelementptr inbounds nuw i64, ptr %48, i64 %49
  %51 = load i64, ptr %50, align 8, !tbaa !24
  %52 = add i64 %51, 1
  store i64 %52, ptr %50, align 8, !tbaa !24
  br label %53

53:                                               ; preds = %47, %44
  ret void
}