; Function Attrs: nofree nosync nounwind memory(readwrite, inaccessiblemem: none) uwtable
define internal fastcc void @dttstat(ptr noundef %0, ptr noundef readonly captures(none) %1, i64 noundef %2, ptr noundef %3) unnamed_addr #4 {
  %5 = getelementptr inbounds nuw i8, ptr %1, i64 8
  %6 = load ptr, ptr %5, align 8, !tbaa !32
  %.not = icmp eq ptr %6, null
  br i1 %.not, label %9, label %7

7:                                                ; preds = %4
  %8 = add i64 %2, 1
  tail call fastcc void @dttstat(ptr noundef %0, ptr noundef nonnull %6, i64 noundef %8, ptr noundef %3)
  br label %9

9:                                                ; preds = %7, %4
  %10 = load ptr, ptr %1, align 8, !tbaa !33
  %.not19 = icmp eq ptr %10, null
  br i1 %.not19, label %13, label %11

11:                                               ; preds = %9
  %12 = add i64 %2, 1
  tail call fastcc void @dttstat(ptr noundef %0, ptr noundef nonnull %10, i64 noundef %12, ptr noundef %3)
  br label %13

13:                                               ; preds = %11, %9
  %14 = getelementptr inbounds nuw i8, ptr %0, i64 8
  %15 = load i64, ptr %14, align 8, !tbaa !22
  %16 = icmp ugt i64 %2, %15
  br i1 %16, label %17, label %18

17:                                               ; preds = %13
  store i64 %2, ptr %14, align 8, !tbaa !22
  br label %18

18:                                               ; preds = %17, %13
  %.not20 = icmp eq ptr %3, null
  br i1 %.not20, label %23, label %19

19:                                               ; preds = %18
  %20 = getelementptr inbounds nuw i64, ptr %3, i64 %2
  %21 = load i64, ptr %20, align 8, !tbaa !25
  %22 = add i64 %21, 1
  store i64 %22, ptr %20, align 8, !tbaa !25
  br label %23

23:                                               ; preds = %19, %18
  ret void
}